target datalayout = "e-m:e-p270:32:32-p271:32:32-p272:64:64-i64:64-i128:128-f80:128-n8:16:32:64-S128"
target triple = "x86_64-pc-linux-gnu"

; Function Attrs: mustprogress uwtable
define void @fstWriterEmitValueChange64(ptr noundef %0, i32 noundef %1, i32 noundef %2, i64 noundef %3) #0 {
  %5 = alloca ptr, align 8
  %6 = alloca i32, align 4
  %7 = alloca i32, align 4
  %8 = alloca i64, align 8
  %9 = alloca [64 x i8], align 16
  %10 = alloca ptr, align 8
  %11 = alloca i32, align 4
  store ptr %0, ptr %5, align 8, !tbaa !50
  store i32 %1, ptr %6, align 4, !tbaa !11
  store i32 %2, ptr %7, align 4, !tbaa !11
  store i64 %3, ptr %8, align 8, !tbaa !35
  call void @llvm.lifetime.start.p0(i64 64, ptr %9) #15
  call void @llvm.lifetime.start.p0(i64 8, ptr %10) #15
  %12 = getelementptr inbounds [64 x i8], ptr %9, i64 0, i64 0
  store ptr %12, ptr %10, align 8, !tbaa !6
  call void @llvm.lifetime.start.p0(i64 4, ptr %11) #15
  store i32 0, ptr %11, align 4, !tbaa !11
  br label %13

13:                                               ; preds = %30, %4
  %14 = load i32, ptr %11, align 4, !tbaa !11
  %15 = load i32, ptr %7, align 4, !tbaa !11
  %16 = icmp ult i32 %14, %15
  br i1 %16, label %17, label %33

17:                                               ; preds = %13
  %18 = load i64, ptr %8, align 8, !tbaa !35
  %19 = load i32, ptr %7, align 4, !tbaa !11
  %20 = load i32, ptr %11, align 4, !tbaa !11
  %21 = sub i32 %19, %20
  %22 = sub i32 %21, 1
  %23 = zext i32 %22 to i64
  %24 = lshr i64 %18, %23
  %25 = and i64 %24, 1
  %26 = add i64 48, %25
  %27 = trunc i64 %26 to i8
  %28 = load ptr, ptr %10, align 8, !tbaa !6
  %29 = getelementptr inbounds nuw i8, ptr %28, i32 1
  store ptr %29, ptr %10, align 8, !tbaa !6
  store i8 %27, ptr %28, align 1, !tbaa !34
  br label %30

30:                                               ; preds = %17
  %31 = load i32, ptr %11, align 4, !tbaa !11
  %32 = add i32 %31, 1
  store i32 %32, ptr %11, align 4, !tbaa !11
  br label %13, !llvm.loop !135

33:                                               ; preds = %13
  %34 = load ptr, ptr %5, align 8, !tbaa !50
  %35 = load i32, ptr %6, align 4, !tbaa !11
  %36 = getelementptr inbounds [64 x i8], ptr %9, i64 0, i64 0
  call void @fstWriterEmitValueChange(ptr noundef %34, i32 noundef %35, ptr noundef %36)
  call void @llvm.lifetime.end.p0(i64 4, ptr %11) #15
  call void @llvm.lifetime.end.p0(i64 8, ptr %10) #15
  call void @llvm.lifetime.end.p0(i64 64, ptr %9) #15
  ret void
}