; Function Attrs: mustprogress nounwind uwtable
define void @fstWriterEmitValueChange64(ptr noundef captures(address_is_null) %0, i32 noundef %1, i32 noundef %2, i64 noundef %3) local_unnamed_addr #0 {
  %5 = alloca [64 x i8], align 16
  call void @llvm.lifetime.start.p0(i64 64, ptr nonnull %5) #39
  %.not = icmp eq i32 %2, 0
  br i1 %.not, label %._crit_edge, label %.lr.ph.preheader

.lr.ph.preheader:                                 ; preds = %4
  %wide.trip.count = zext i32 %2 to i64
  br label %.lr.ph

.lr.ph:                                           ; preds = %.lr.ph.preheader, %.lr.ph
  %indvars.iv = phi i64 [ 0, %.lr.ph.preheader ], [ %indvars.iv.next, %.lr.ph ]
  %.0810 = phi ptr [ %5, %.lr.ph.preheader ], [ %14, %.lr.ph ]
  %6 = trunc nuw i64 %indvars.iv to i32
  %7 = xor i32 %6, -1
  %8 = add i32 %2, %7
  %9 = zext nneg i32 %8 to i64
  %10 = lshr i64 %3, %9
  %11 = trunc i64 %10 to i8
  %12 = and i8 %11, 1
  %13 = or disjoint i8 %12, 48
  %14 = getelementptr inbounds nuw i8, ptr %.0810, i64 1
  store i8 %13, ptr %.0810, align 1, !tbaa !6
  %indvars.iv.next = add nuw nsw i64 %indvars.iv, 1
  %exitcond.not = icmp eq i64 %indvars.iv.next, %wide.trip.count
  br i1 %exitcond.not, label %._crit_edge, label %.lr.ph, !llvm.loop !115

._crit_edge:                                      ; preds = %.lr.ph, %4
  call void @fstWriterEmitValueChange(ptr noundef %0, i32 noundef %1, ptr noundef nonnull %5)
  call void @llvm.lifetime.end.p0(i64 64, ptr nonnull %5) #39
  ret void
}